target datalayout = "e-m:e-p270:32:32-p271:32:32-p272:64:64-i64:64-i128:128-f80:128-n8:16:32:64-S128"
target triple = "x86_64-pc-linux-gnu"

%struct._zend_executor_globals = type { %struct._zval_struct, %struct._zval_struct, [32 x ptr], ptr, ptr, %struct._zend_array, %struct._zend_array, ptr, i32, i32, ptr, ptr, ptr, ptr, ptr, ptr, i64, ptr, ptr, i32, i32, i64, i32, i32, i32, i8, i8, %struct.zend_atomic_bool_s, %struct.zend_atomic_bool_s, ptr, i64, ptr, ptr, %struct._zend_array, %struct._zend_array, i32, i8, %struct._zval_struct, %struct._zval_struct, %struct._zend_stack, %struct._zend_stack, %struct._zend_stack, ptr, i32, i32, i64, ptr, ptr, ptr, %struct._zend_objects_store, ptr, ptr, ptr, [3 x %struct._zend_op], ptr, i8, i8, i64, i32, i32, ptr, [16 x %struct._HashTableIterator], ptr, %union._zend_function, %struct._zend_op, %struct._zend_array, i64, %struct.zend_get_gc_buffer, ptr, ptr, ptr, i64, i8, i32, ptr, ptr, i64, %struct._zend_call_stack, i64, i64, [6 x ptr] }
%struct.zend_atomic_bool_s = type { i8 }
%struct._zval_struct = type { %union._zend_value, %union.anon, %union.anon.2 }
%union._zend_value = type { i64 }
%union.anon = type { i32 }
%union.anon.2 = type { i32 }
%struct._zend_stack = type { i32, i32, i32, ptr }
%struct._zend_objects_store = type { ptr, i32, i32, i32 }
%struct._HashTableIterator = type { ptr, i32, i32 }
%union._zend_function = type { %struct._zend_op_array }
%struct._zend_op_array = type { i8, [3 x i8], i32, ptr, ptr, ptr, i32, i32, ptr, ptr, ptr, ptr, i32, i32, i32, i32, ptr, ptr, ptr, ptr, ptr, i32, i32, ptr, ptr, ptr, i32, i32, i32, i32, ptr, ptr, [6 x ptr] }
%struct._zend_op = type { ptr, %union._znode_op, %union._znode_op, %union._znode_op, i32, i32, i8, i8, i8, i8 }
%union._znode_op = type { i32 }
%struct._zend_array = type { %struct._zend_refcounted_h, %union.anon.4, i32, %union.anon.6, i32, i32, i32, i32, i64, ptr }
%struct._zend_refcounted_h = type { i32, %union.anon.3 }
%union.anon.3 = type { i32 }
%union.anon.4 = type { i32 }
%union.anon.6 = type { ptr }
%struct.zend_get_gc_buffer = type { ptr, ptr, ptr }
%struct._zend_call_stack = type { ptr, i64 }
%struct._zend_string = type { %struct._zend_refcounted_h, i64, i64, [1 x i8] }
%struct._xmlNode = type { ptr, i32, ptr, ptr, ptr, ptr, ptr, ptr, ptr, ptr, ptr, ptr, ptr, ptr, i16, i16 }
%struct._zend_execute_data = type { ptr, ptr, ptr, ptr, %struct._zval_struct, ptr, ptr, ptr, ptr }
%struct._dom_object = type { ptr, ptr, ptr, %struct._zend_object }
%struct._zend_object = type { %struct._zend_refcounted_h, i32, ptr, ptr, ptr, [1 x %struct._zval_struct] }
%struct._zend_class_entry = type { i8, ptr, %union.anon.8, i32, i32, i32, i32, ptr, ptr, ptr, %struct._zend_array, %struct._zend_array, %struct._zend_array, ptr, ptr, ptr, ptr, ptr, ptr, ptr, ptr, ptr, ptr, ptr, ptr, ptr, ptr, ptr, ptr, ptr, ptr, ptr, %union.anon.9, ptr, ptr, ptr, ptr, i32, i32, %union.anon.10, ptr, ptr, ptr, ptr, i32, ptr, ptr, %union.anon.11 }
%union.anon.8 = type { ptr }
%union.anon.9 = type { ptr }
%union.anon.10 = type { ptr }
%union.anon.11 = type { %struct.anon.12 }
%struct.anon.12 = type { ptr, i32, i32 }
%struct._php_libxml_node_ptr = type { ptr, i32, ptr }

@executor_globals = external global %struct._zend_executor_globals, align 8
@.str.1 = private unnamed_addr constant [18 x i8] c"Couldn't fetch %s\00", align 1
@xmlFree = external global ptr, align 8
@.str.3 = private unnamed_addr constant [3 x i8] c"ls\00", align 1

; Function Attrs: nounwind uwtable
define internal ptr @php_dom_obj_from_obj(ptr noundef %0) #0 {
  %2 = alloca ptr, align 8
  store ptr %0, ptr %2, align 8
  %3 = load ptr, ptr %2, align 8
  %4 = getelementptr inbounds i8, ptr %3, i64 -24
  ret ptr %4
}

; Function Attrs: nounwind uwtable
define hidden void @zim_DOMCharacterData_insertData(ptr noundef %0, ptr noundef %1) #0 {
  %3 = alloca ptr, align 8
  %4 = alloca ptr, align 8
  %5 = alloca ptr, align 8
  %6 = alloca ptr, align 8
  %7 = alloca ptr, align 8
  %8 = alloca ptr, align 8
  %9 = alloca ptr, align 8
  %10 = alloca ptr, align 8
  %11 = alloca i64, align 8
  %12 = alloca i32, align 4
  %13 = alloca i64, align 8
  %14 = alloca ptr, align 8
  store ptr %0, ptr %3, align 8
  store ptr %1, ptr %4, align 8
  %15 = load ptr, ptr %3, align 8
  %16 = getelementptr inbounds %struct._zend_execute_data, ptr %15, i32 0, i32 4
  store ptr %16, ptr %5, align 8
  %17 = load ptr, ptr %3, align 8
  %18 = getelementptr inbounds %struct._zend_execute_data, ptr %17, i32 0, i32 4
  %19 = getelementptr inbounds %struct._zval_struct, ptr %18, i32 0, i32 2
  %20 = load i32, ptr %19, align 4
  %21 = call i32 (i32, ptr, ...) @zend_parse_parameters(i32 noundef %20, ptr noundef @.str.3, ptr noundef %11, ptr noundef %10, ptr noundef %13)
  %22 = icmp eq i32 %21, -1
  br i1 %22, label %23, label %28

23:                                               ; preds = %2
  br label %24

24:                                               ; preds = %23
  %25 = load ptr, ptr getelementptr inbounds (%struct._zend_executor_globals, ptr @executor_globals, i32 0, i32 50), align 8
  %26 = icmp ne ptr %25, null
  call void @llvm.assume(i1 %26)
  br label %130

27:                                               ; No predecessors!
  br label %28

28:                                               ; preds = %27, %2
  %29 = load ptr, ptr %5, align 8
  %30 = getelementptr inbounds %struct._zval_struct, ptr %29, i32 0, i32 0
  %31 = load ptr, ptr %30, align 8
  %32 = call ptr @php_dom_obj_from_obj(ptr noundef %31)
  store ptr %32, ptr %14, align 8
  %33 = load ptr, ptr %14, align 8
  %34 = getelementptr inbounds %struct._dom_object, ptr %33, i32 0, i32 0
  %35 = load ptr, ptr %34, align 8
  %36 = icmp eq ptr %35, null
  %37 = xor i1 %36, true
  %38 = xor i1 %37, true
  %39 = zext i1 %38 to i32
  %40 = sext i32 %39 to i64
  %41 = icmp ne i64 %40, 0
  br i1 %41, label %42, label %55

42:                                               ; preds = %28
  %43 = load ptr, ptr %14, align 8
  %44 = getelementptr inbounds %struct._dom_object, ptr %43, i32 0, i32 3
  %45 = getelementptr inbounds %struct._zend_object, ptr %44, i32 0, i32 2
  %46 = load ptr, ptr %45, align 8
  %47 = getelementptr inbounds %struct._zend_class_entry, ptr %46, i32 0, i32 1
  %48 = load ptr, ptr %47, align 8
  %49 = getelementptr inbounds %struct._zend_string, ptr %48, i32 0, i32 3
  %50 = getelementptr inbounds [1 x i8], ptr %49, i64 0, i64 0
  call void (ptr, ptr, ...) @zend_throw_error(ptr noundef null, ptr noundef @.str.1, ptr noundef %50)
  br label %51

51:                                               ; preds = %42
  %52 = load ptr, ptr getelementptr inbounds (%struct._zend_executor_globals, ptr @executor_globals, i32 0, i32 50), align 8
  %53 = icmp ne ptr %52, null
  call void @llvm.assume(i1 %53)
  br label %130

54:                                               ; No predecessors!
  br label %55

55:                                               ; preds = %54, %28
  %56 = load ptr, ptr %14, align 8
  %57 = getelementptr inbounds %struct._dom_object, ptr %56, i32 0, i32 0
  %58 = load ptr, ptr %57, align 8
  %59 = getelementptr inbounds %struct._php_libxml_node_ptr, ptr %58, i32 0, i32 0
  %60 = load ptr, ptr %59, align 8
  store ptr %60, ptr %9, align 8
  %61 = load ptr, ptr %9, align 8
  %62 = getelementptr inbounds %struct._xmlNode, ptr %61, i32 0, i32 10
  %63 = load ptr, ptr %62, align 8
  store ptr %63, ptr %6, align 8
  %64 = load ptr, ptr %6, align 8
  %65 = icmp eq ptr %64, null
  br i1 %65, label %66, label %73

66:                                               ; preds = %55
  br label %67

67:                                               ; preds = %66
  br label %68

68:                                               ; preds = %67
  %69 = load ptr, ptr %4, align 8
  %70 = getelementptr inbounds %struct._zval_struct, ptr %69, i32 0, i32 1
  store i32 2, ptr %70, align 8
  br label %71

71:                                               ; preds = %68
  br label %130

72:                                               ; No predecessors!
  br label %73

73:                                               ; preds = %72, %55
  %74 = load ptr, ptr %6, align 8
  %75 = call i32 @xmlUTF8Strlen(ptr noundef %74)
  store i32 %75, ptr %12, align 4
  %76 = load i64, ptr %11, align 8
  %77 = icmp slt i64 %76, 0
  br i1 %77, label %91, label %78

78:                                               ; preds = %73
  %79 = load i64, ptr %11, align 8
  %80 = icmp sgt i64 %79, 2147483647
  %81 = xor i1 %80, true
  %82 = xor i1 %81, true
  %83 = zext i1 %82 to i32
  %84 = sext i32 %83 to i64
  %85 = icmp ne i64 %84, 0
  br i1 %85, label %91, label %86

86:                                               ; preds = %78
  %87 = load i64, ptr %11, align 8
  %88 = load i32, ptr %12, align 4
  %89 = sext i32 %88 to i64
  %90 = icmp sgt i64 %87, %89
  br i1 %90, label %91, label %102

91:                                               ; preds = %86, %78, %73
  %92 = load ptr, ptr %14, align 8
  %93 = getelementptr inbounds %struct._dom_object, ptr %92, i32 0, i32 1
  %94 = load ptr, ptr %93, align 8
  %95 = call i32 @dom_get_strict_error(ptr noundef %94)
  call void @php_dom_throw_error(i32 noundef 1, i32 noundef %95)
  br label %96

96:                                               ; preds = %91
  br label %97

97:                                               ; preds = %96
  %98 = load ptr, ptr %4, align 8
  %99 = getelementptr inbounds %struct._zval_struct, ptr %98, i32 0, i32 1
  store i32 2, ptr %99, align 8
  br label %100

100:                                              ; preds = %97
  br label %130

101:                                              ; No predecessors!
  br label %102

102:                                              ; preds = %101, %86
  %103 = load ptr, ptr %6, align 8
  %104 = load i64, ptr %11, align 8
  %105 = trunc i64 %104 to i32
  %106 = call ptr @xmlUTF8Strndup(ptr noundef %103, i32 noundef %105)
  store ptr %106, ptr %7, align 8
  %107 = load ptr, ptr %6, align 8
  %108 = load i64, ptr %11, align 8
  %109 = trunc i64 %108 to i32
  %110 = load i32, ptr %12, align 4
  %111 = load i64, ptr %11, align 8
  %112 = trunc i64 %111 to i32
  %113 = sub nsw i32 %110, %112
  %114 = call ptr @xmlUTF8Strsub(ptr noundef %107, i32 noundef %109, i32 noundef %113)
  store ptr %114, ptr %8, align 8
  %115 = load ptr, ptr %9, align 8
  %116 = load ptr, ptr %7, align 8
  call void @xmlNodeSetContent(ptr noundef %115, ptr noundef %116)
  %117 = load ptr, ptr %9, align 8
  %118 = load ptr, ptr %10, align 8
  call void @xmlNodeAddContent(ptr noundef %117, ptr noundef %118)
  %119 = load ptr, ptr %9, align 8
  %120 = load ptr, ptr %8, align 8
  call void @xmlNodeAddContent(ptr noundef %119, ptr noundef %120)
  %121 = load ptr, ptr @xmlFree, align 8
  %122 = load ptr, ptr %7, align 8
  call void %121(ptr noundef %122)
  %123 = load ptr, ptr @xmlFree, align 8
  %124 = load ptr, ptr %8, align 8
  call void %123(ptr noundef %124)
  br label %125

125:                                              ; preds = %102
  br label %126

126:                                              ; preds = %125
  %127 = load ptr, ptr %4, align 8
  %128 = getelementptr inbounds %struct._zval_struct, ptr %127, i32 0, i32 1
  store i32 3, ptr %128, align 8
  br label %129

129:                                              ; preds = %126
  br label %130

130:                                              ; preds = %129, %100, %71, %51, %24
  ret void
}