; Function Attrs: nounwind uwtable
define hidden void @zim_DOMCharacterData_insertData(ptr nocapture noundef readonly %0, ptr nocapture noundef writeonly %1) local_unnamed_addr #0 {
  %3 = alloca ptr, align 8
  %4 = alloca i64, align 8
  %5 = alloca i64, align 8
  %6 = getelementptr inbounds i8, ptr %0, i64 44
  %7 = load i32, ptr %6, align 4
  %8 = call i32 (i32, ptr, ...) @zend_parse_parameters(i32 noundef %7, ptr noundef nonnull @.str.3, ptr noundef nonnull %4, ptr noundef nonnull %3, ptr noundef nonnull %5) #6
  %9 = icmp eq i32 %8, -1
  br i1 %9, label %10, label %13

10:                                               ; preds = %2
  %11 = load ptr, ptr getelementptr inbounds (%struct._zend_executor_globals, ptr @executor_globals, i64 0, i32 50), align 8
  %12 = icmp ne ptr %11, null
  call void @llvm.assume(i1 %12)
  br label %55

13:                                               ; preds = %2
  %14 = getelementptr inbounds i8, ptr %0, i64 32
  %15 = load ptr, ptr %14, align 8
  %16 = getelementptr inbounds i8, ptr %15, i64 -24
  %17 = load ptr, ptr %16, align 8
  %18 = icmp eq ptr %17, null
  br i1 %18, label %19, label %27

19:                                               ; preds = %13
  %20 = getelementptr inbounds i8, ptr %15, i64 16
  %21 = load ptr, ptr %20, align 8
  %22 = getelementptr inbounds i8, ptr %21, i64 8
  %23 = load ptr, ptr %22, align 8
  %24 = getelementptr inbounds i8, ptr %23, i64 24
  call void (ptr, ptr, ...) @zend_throw_error(ptr noundef null, ptr noundef nonnull @.str.1, ptr noundef nonnull %24) #6
  %25 = load ptr, ptr getelementptr inbounds (%struct._zend_executor_globals, ptr @executor_globals, i64 0, i32 50), align 8
  %26 = icmp ne ptr %25, null
  call void @llvm.assume(i1 %26)
  br label %55

27:                                               ; preds = %13
  %28 = load ptr, ptr %17, align 8
  %29 = getelementptr inbounds i8, ptr %28, i64 80
  %30 = load ptr, ptr %29, align 8
  %31 = icmp eq ptr %30, null
  br i1 %31, label %32, label %34

32:                                               ; preds = %27
  %33 = getelementptr inbounds i8, ptr %1, i64 8
  store i32 2, ptr %33, align 8
  br label %55

34:                                               ; preds = %27
  %35 = call i32 @xmlUTF8Strlen(ptr noundef nonnull %30) #6
  %36 = load i64, ptr %4, align 8
  %or.cond = icmp ugt i64 %36, 2147483647
  %37 = sext i32 %35 to i64
  %38 = icmp sgt i64 %36, %37
  %or.cond26 = select i1 %or.cond, i1 true, i1 %38
  br i1 %or.cond26, label %39, label %44

39:                                               ; preds = %34
  %40 = getelementptr inbounds i8, ptr %15, i64 -16
  %41 = load ptr, ptr %40, align 8
  %42 = call i32 @dom_get_strict_error(ptr noundef %41) #6
  call void @php_dom_throw_error(i32 noundef 1, i32 noundef %42) #6
  %43 = getelementptr inbounds i8, ptr %1, i64 8
  store i32 2, ptr %43, align 8
  br label %55

44:                                               ; preds = %34
  %45 = trunc i64 %36 to i32
  %46 = call ptr @xmlUTF8Strndup(ptr noundef nonnull %30, i32 noundef %45) #6
  %47 = load i64, ptr %4, align 8
  %48 = trunc i64 %47 to i32
  %49 = sub nsw i32 %35, %48
  %50 = call ptr @xmlUTF8Strsub(ptr noundef nonnull %30, i32 noundef %48, i32 noundef %49) #6
  call void @xmlNodeSetContent(ptr noundef nonnull %28, ptr noundef %46) #6
  %51 = load ptr, ptr %3, align 8
  call void @xmlNodeAddContent(ptr noundef nonnull %28, ptr noundef %51) #6
  call void @xmlNodeAddContent(ptr noundef nonnull %28, ptr noundef %50) #6
  %52 = load ptr, ptr @xmlFree, align 8
  call void %52(ptr noundef %46) #6
  %53 = load ptr, ptr @xmlFree, align 8
  call void %53(ptr noundef %50) #6
  %54 = getelementptr inbounds i8, ptr %1, i64 8
  store i32 3, ptr %54, align 8
  br label %55

55:                                               ; preds = %44, %39, %32, %19, %10
  ret void
}